target datalayout = "e-m:e-p270:32:32-p271:32:32-p272:64:64-i64:64-i128:128-f80:128-n8:16:32:64-S128"
target triple = "x86_64-pc-linux-gnu"

%struct.FRONTEND_VERILOG_YYLTYPE = type { i32, i32, i32, i32 }

@.str.121 = private unnamed_addr constant [8 x i8] c"%s %s (\00", align 1
@.str.122 = private unnamed_addr constant [6 x i8] c"token\00", align 1
@.str.123 = private unnamed_addr constant [6 x i8] c"nterm\00", align 1
@.str.124 = private unnamed_addr constant [3 x i8] c": \00", align 1
@.str.125 = private unnamed_addr constant [2 x i8] c")\00", align 1
@.str.126 = private unnamed_addr constant [3 x i8] c"%d\00", align 1
@.str.127 = private unnamed_addr constant [4 x i8] c".%d\00", align 1
@.str.128 = private unnamed_addr constant [4 x i8] c"-%d\00", align 1

; Function Attrs: mustprogress nounwind uwtable
define internal void @_ZL21yy_symbol_value_printP8_IO_FILE15yysymbol_kind_tPK24FRONTEND_VERILOG_YYSTYPEPK24FRONTEND_VERILOG_YYLTYPE(ptr noundef %0, i32 noundef %1, ptr noundef %2, ptr noundef %3) #4 {
  %5 = alloca ptr, align 8
  %6 = alloca i32, align 4
  %7 = alloca ptr, align 8
  %8 = alloca ptr, align 8
  %9 = alloca ptr, align 8
  %10 = alloca i32, align 4
  store ptr %0, ptr %5, align 8, !tbaa !52
  store i32 %1, ptr %6, align 4, !tbaa !49
  store ptr %2, ptr %7, align 8, !tbaa !45
  store ptr %3, ptr %8, align 8, !tbaa !47
  call void @llvm.lifetime.start.p0(i64 8, ptr %9) #3
  %11 = load ptr, ptr %5, align 8, !tbaa !52
  store ptr %11, ptr %9, align 8, !tbaa !52
  %12 = load ptr, ptr %7, align 8, !tbaa !45
  %13 = icmp ne ptr %12, null
  br i1 %13, label %15, label %14

14:                                               ; preds = %4
  store i32 1, ptr %10, align 4
  br label %16

15:                                               ; preds = %4
  store i32 0, ptr %10, align 4
  br label %16

16:                                               ; preds = %15, %14
  call void @llvm.lifetime.end.p0(i64 8, ptr %9) #3
  %17 = load i32, ptr %10, align 4
  switch i32 %17, label %19 [
    i32 0, label %18
    i32 1, label %18
  ]

18:                                               ; preds = %16, %16
  ret void

19:                                               ; preds = %16
  unreachable
}

; Function Attrs: mustprogress nounwind uwtable
define internal noundef i32 @_ZL18yy_location_print_P8_IO_FILEPK24FRONTEND_VERILOG_YYLTYPE(ptr noundef %0, ptr noundef %1) #4 {
  %3 = alloca ptr, align 8
  %4 = alloca ptr, align 8
  %5 = alloca i32, align 4
  %6 = alloca i32, align 4
  store ptr %0, ptr %3, align 8, !tbaa !52
  store ptr %1, ptr %4, align 8, !tbaa !47
  call void @llvm.lifetime.start.p0(i64 4, ptr %5) #3
  store i32 0, ptr %5, align 4, !tbaa !39
  call void @llvm.lifetime.start.p0(i64 4, ptr %6) #3
  %7 = load ptr, ptr %4, align 8, !tbaa !47
  %8 = getelementptr inbounds nuw %struct.FRONTEND_VERILOG_YYLTYPE, ptr %7, i32 0, i32 3
  %9 = load i32, ptr %8, align 4, !tbaa !62
  %10 = icmp ne i32 0, %9
  br i1 %10, label %11, label %16

11:                                               ; preds = %2
  %12 = load ptr, ptr %4, align 8, !tbaa !47
  %13 = getelementptr inbounds nuw %struct.FRONTEND_VERILOG_YYLTYPE, ptr %12, i32 0, i32 3
  %14 = load i32, ptr %13, align 4, !tbaa !62
  %15 = sub nsw i32 %14, 1
  br label %17

16:                                               ; preds = %2
  br label %17

17:                                               ; preds = %16, %11
  %18 = phi i32 [ %15, %11 ], [ 0, %16 ]
  store i32 %18, ptr %6, align 4, !tbaa !39
  %19 = load ptr, ptr %4, align 8, !tbaa !47
  %20 = getelementptr inbounds nuw %struct.FRONTEND_VERILOG_YYLTYPE, ptr %19, i32 0, i32 0
  %21 = load i32, ptr %20, align 4, !tbaa !58
  %22 = icmp sle i32 0, %21
  br i1 %22, label %23, label %44

23:                                               ; preds = %17
  %24 = load ptr, ptr %3, align 8, !tbaa !52
  %25 = load ptr, ptr %4, align 8, !tbaa !47
  %26 = getelementptr inbounds nuw %struct.FRONTEND_VERILOG_YYLTYPE, ptr %25, i32 0, i32 0
  %27 = load i32, ptr %26, align 4, !tbaa !58
  %28 = call i32 (ptr, ptr, ...) @fprintf(ptr noundef %24, ptr noundef @.str.126, i32 noundef %27) #3
  %29 = load i32, ptr %5, align 4, !tbaa !39
  %30 = add nsw i32 %29, %28
  store i32 %30, ptr %5, align 4, !tbaa !39
  %31 = load ptr, ptr %4, align 8, !tbaa !47
  %32 = getelementptr inbounds nuw %struct.FRONTEND_VERILOG_YYLTYPE, ptr %31, i32 0, i32 1
  %33 = load i32, ptr %32, align 4, !tbaa !60
  %34 = icmp sle i32 0, %33
  br i1 %34, label %35, label %43

35:                                               ; preds = %23
  %36 = load ptr, ptr %3, align 8, !tbaa !52
  %37 = load ptr, ptr %4, align 8, !tbaa !47
  %38 = getelementptr inbounds nuw %struct.FRONTEND_VERILOG_YYLTYPE, ptr %37, i32 0, i32 1
  %39 = load i32, ptr %38, align 4, !tbaa !60
  %40 = call i32 (ptr, ptr, ...) @fprintf(ptr noundef %36, ptr noundef @.str.127, i32 noundef %39) #3
  %41 = load i32, ptr %5, align 4, !tbaa !39
  %42 = add nsw i32 %41, %40
  store i32 %42, ptr %5, align 4, !tbaa !39
  br label %43

43:                                               ; preds = %35, %23
  br label %44

44:                                               ; preds = %43, %17
  %45 = load ptr, ptr %4, align 8, !tbaa !47
  %46 = getelementptr inbounds nuw %struct.FRONTEND_VERILOG_YYLTYPE, ptr %45, i32 0, i32 2
  %47 = load i32, ptr %46, align 4, !tbaa !61
  %48 = icmp sle i32 0, %47
  br i1 %48, label %49, label %91

49:                                               ; preds = %44
  %50 = load ptr, ptr %4, align 8, !tbaa !47
  %51 = getelementptr inbounds nuw %struct.FRONTEND_VERILOG_YYLTYPE, ptr %50, i32 0, i32 0
  %52 = load i32, ptr %51, align 4, !tbaa !58
  %53 = load ptr, ptr %4, align 8, !tbaa !47
  %54 = getelementptr inbounds nuw %struct.FRONTEND_VERILOG_YYLTYPE, ptr %53, i32 0, i32 2
  %55 = load i32, ptr %54, align 4, !tbaa !61
  %56 = icmp slt i32 %52, %55
  br i1 %56, label %57, label %74

57:                                               ; preds = %49
  %58 = load ptr, ptr %3, align 8, !tbaa !52
  %59 = load ptr, ptr %4, align 8, !tbaa !47
  %60 = getelementptr inbounds nuw %struct.FRONTEND_VERILOG_YYLTYPE, ptr %59, i32 0, i32 2
  %61 = load i32, ptr %60, align 4, !tbaa !61
  %62 = call i32 (ptr, ptr, ...) @fprintf(ptr noundef %58, ptr noundef @.str.128, i32 noundef %61) #3
  %63 = load i32, ptr %5, align 4, !tbaa !39
  %64 = add nsw i32 %63, %62
  store i32 %64, ptr %5, align 4, !tbaa !39
  %65 = load i32, ptr %6, align 4, !tbaa !39
  %66 = icmp sle i32 0, %65
  br i1 %66, label %67, label %73

67:                                               ; preds = %57
  %68 = load ptr, ptr %3, align 8, !tbaa !52
  %69 = load i32, ptr %6, align 4, !tbaa !39
  %70 = call i32 (ptr, ptr, ...) @fprintf(ptr noundef %68, ptr noundef @.str.127, i32 noundef %69) #3
  %71 = load i32, ptr %5, align 4, !tbaa !39
  %72 = add nsw i32 %71, %70
  store i32 %72, ptr %5, align 4, !tbaa !39
  br label %73

73:                                               ; preds = %67, %57
  br label %90

74:                                               ; preds = %49
  %75 = load i32, ptr %6, align 4, !tbaa !39
  %76 = icmp sle i32 0, %75
  br i1 %76, label %77, label %89

77:                                               ; preds = %74
  %78 = load ptr, ptr %4, align 8, !tbaa !47
  %79 = getelementptr inbounds nuw %struct.FRONTEND_VERILOG_YYLTYPE, ptr %78, i32 0, i32 1
  %80 = load i32, ptr %79, align 4, !tbaa !60
  %81 = load i32, ptr %6, align 4, !tbaa !39
  %82 = icmp slt i32 %80, %81
  br i1 %82, label %83, label %89

83:                                               ; preds = %77
  %84 = load ptr, ptr %3, align 8, !tbaa !52
  %85 = load i32, ptr %6, align 4, !tbaa !39
  %86 = call i32 (ptr, ptr, ...) @fprintf(ptr noundef %84, ptr noundef @.str.128, i32 noundef %85) #3
  %87 = load i32, ptr %5, align 4, !tbaa !39
  %88 = add nsw i32 %87, %86
  store i32 %88, ptr %5, align 4, !tbaa !39
  br label %89

89:                                               ; preds = %83, %77, %74
  br label %90

90:                                               ; preds = %89, %73
  br label %91

91:                                               ; preds = %90, %44
  %92 = load i32, ptr %5, align 4, !tbaa !39
  call void @llvm.lifetime.end.p0(i64 4, ptr %6) #3
  call void @llvm.lifetime.end.p0(i64 4, ptr %5) #3
  ret i32 %92
}

; Function Attrs: mustprogress nounwind uwtable
define internal noundef ptr @_ZL13yysymbol_name15yysymbol_kind_t(i32 noundef %0) #4 {
  %2 = alloca i32, align 4
  store i32 %0, ptr %2, align 4, !tbaa !49
  %3 = load i32, ptr %2, align 4, !tbaa !49
  %4 = sext i32 %3 to i64
  %5 = getelementptr inbounds [484 x ptr], ptr @_ZL7yytname, i64 0, i64 %4
  %6 = load ptr, ptr %5, align 8, !tbaa !51
  ret ptr %6
}

; Function Attrs: mustprogress uwtable
define internal void @_ZL15yy_symbol_printP8_IO_FILE15yysymbol_kind_tPK24FRONTEND_VERILOG_YYSTYPEPK24FRONTEND_VERILOG_YYLTYPE(ptr noundef %0, i32 noundef %1, ptr noundef %2, ptr noundef %3) #6 {
  %5 = alloca ptr, align 8
  %6 = alloca i32, align 4
  %7 = alloca ptr, align 8
  %8 = alloca ptr, align 8
  store ptr %0, ptr %5, align 8, !tbaa !52
  store i32 %1, ptr %6, align 4, !tbaa !49
  store ptr %2, ptr %7, align 8, !tbaa !45
  store ptr %3, ptr %8, align 8, !tbaa !47
  %9 = load ptr, ptr %5, align 8, !tbaa !52
  %10 = load i32, ptr %6, align 4, !tbaa !49
  %11 = icmp slt i32 %10, 174
  br i1 %11, label %12, label %13

12:                                               ; preds = %4
  br label %14

13:                                               ; preds = %4
  br label %14

14:                                               ; preds = %13, %12
  %15 = phi ptr [ @.str.122, %12 ], [ @.str.123, %13 ]
  %16 = getelementptr inbounds [6 x i8], ptr %15, i64 0, i64 0
  %17 = load i32, ptr %6, align 4, !tbaa !49
  %18 = call noundef ptr @_ZL13yysymbol_name15yysymbol_kind_t(i32 noundef %17)
  %19 = call i32 (ptr, ptr, ...) @fprintf(ptr noundef %9, ptr noundef @.str.121, ptr noundef %16, ptr noundef %18) #3
  %20 = load ptr, ptr %5, align 8, !tbaa !52
  %21 = load ptr, ptr %8, align 8, !tbaa !47
  %22 = call noundef i32 @_ZL18yy_location_print_P8_IO_FILEPK24FRONTEND_VERILOG_YYLTYPE(ptr noundef %20, ptr noundef %21)
  %23 = load ptr, ptr %5, align 8, !tbaa !52
  %24 = call i32 (ptr, ptr, ...) @fprintf(ptr noundef %23, ptr noundef @.str.124) #3
  %25 = load ptr, ptr %5, align 8, !tbaa !52
  %26 = load i32, ptr %6, align 4, !tbaa !49
  %27 = load ptr, ptr %7, align 8, !tbaa !45
  %28 = load ptr, ptr %8, align 8, !tbaa !47
  call void @_ZL21yy_symbol_value_printP8_IO_FILE15yysymbol_kind_tPK24FRONTEND_VERILOG_YYSTYPEPK24FRONTEND_VERILOG_YYLTYPE(ptr noundef %25, i32 noundef %26, ptr noundef %27, ptr noundef %28)
  %29 = load ptr, ptr %5, align 8, !tbaa !52
  %30 = call i32 (ptr, ptr, ...) @fprintf(ptr noundef %29, ptr noundef @.str.125) #3
  ret void
}