; Function Attrs: mustprogress nofree nounwind uwtable
define internal fastcc void @_ZL15yy_symbol_printP8_IO_FILE15yysymbol_kind_tPK24FRONTEND_VERILOG_YYSTYPEPK24FRONTEND_VERILOG_YYLTYPE(ptr noundef captures(none) %0, i32 noundef range(i32 -32768, 32768) %1, ptr noundef nonnull readonly captures(none) %2) unnamed_addr #12 {
  %4 = icmp slt i32 %1, 174
  %.str.122..str.123 = select i1 %4, ptr @.str.122, ptr @.str.123
  %5 = sext i32 %1 to i64
  %6 = getelementptr inbounds [484 x ptr], ptr @_ZL7yytname, i64 0, i64 %5
  %7 = load ptr, ptr %6, align 8, !tbaa !85
  %8 = tail call i32 (ptr, ptr, ...) @fprintf(ptr noundef %0, ptr noundef nonnull @.str.121, ptr noundef nonnull %.str.122..str.123, ptr noundef %7) #35
  %9 = getelementptr inbounds nuw i8, ptr %2, i64 12
  %10 = load i32, ptr %9, align 4, !tbaa !101
  %spec.select.i = tail call i32 @llvm.usub.sat.i32(i32 %10, i32 1)
  %11 = load i32, ptr %2, align 4, !tbaa !97
  %12 = icmp sgt i32 %11, -1
  br i1 %12, label %13, label %20

13:                                               ; preds = %3
  %14 = tail call i32 (ptr, ptr, ...) @fprintf(ptr noundef %0, ptr noundef nonnull @.str.126, i32 noundef %11) #35
  %15 = getelementptr inbounds nuw i8, ptr %2, i64 4
  %16 = load i32, ptr %15, align 4, !tbaa !99
  %17 = icmp sgt i32 %16, -1
  br i1 %17, label %18, label %20

18:                                               ; preds = %13
  %19 = tail call i32 (ptr, ptr, ...) @fprintf(ptr noundef %0, ptr noundef nonnull @.str.127, i32 noundef %16) #35
  br label %20

20:                                               ; preds = %18, %13, %3
  %21 = getelementptr inbounds nuw i8, ptr %2, i64 8
  %22 = load i32, ptr %21, align 4, !tbaa !100
  %23 = icmp sgt i32 %22, -1
  br i1 %23, label %24, label %_ZL18yy_location_print_P8_IO_FILEPK24FRONTEND_VERILOG_YYLTYPE.exit

24:                                               ; preds = %20
  %25 = load i32, ptr %2, align 4, !tbaa !97
  %26 = icmp slt i32 %25, %22
  br i1 %26, label %27, label %30

27:                                               ; preds = %24
  %28 = tail call i32 (ptr, ptr, ...) @fprintf(ptr noundef %0, ptr noundef nonnull @.str.128, i32 noundef %22) #35
  %29 = icmp sgt i32 %spec.select.i, -1
  br i1 %29, label %.sink.split.i, label %_ZL18yy_location_print_P8_IO_FILEPK24FRONTEND_VERILOG_YYLTYPE.exit

30:                                               ; preds = %24
  %31 = icmp sgt i32 %spec.select.i, -1
  br i1 %31, label %32, label %_ZL18yy_location_print_P8_IO_FILEPK24FRONTEND_VERILOG_YYLTYPE.exit

32:                                               ; preds = %30
  %33 = getelementptr inbounds nuw i8, ptr %2, i64 4
  %34 = load i32, ptr %33, align 4, !tbaa !99
  %35 = icmp slt i32 %34, %spec.select.i
  br i1 %35, label %.sink.split.i, label %_ZL18yy_location_print_P8_IO_FILEPK24FRONTEND_VERILOG_YYLTYPE.exit

.sink.split.i:                                    ; preds = %32, %27
  %.str.127.sink.i = phi ptr [ @.str.127, %27 ], [ @.str.128, %32 ]
  %36 = tail call i32 (ptr, ptr, ...) @fprintf(ptr noundef %0, ptr noundef nonnull %.str.127.sink.i, i32 noundef %spec.select.i) #35
  br label %_ZL18yy_location_print_P8_IO_FILEPK24FRONTEND_VERILOG_YYLTYPE.exit

_ZL18yy_location_print_P8_IO_FILEPK24FRONTEND_VERILOG_YYLTYPE.exit: ; preds = %20, %27, %30, %32, %.sink.split.i
  %37 = tail call i64 @fwrite(ptr nonnull @.str.124, i64 2, i64 1, ptr %0)
  %fputc = tail call i32 @fputc(i32 41, ptr %0)
  ret void
}